Certificate:
    Data:
        Version: 3 (0x2)
        Serial Number: 2 (0x2)
        Signature Algorithm: sha256WithRSAEncryption
        Issuer: C=AR, ST=NQ, L=Neuquen, O=UNC, OU=LabRII, CN=UNC CA/name=EasyRSA/emailAddress=root@localhost
        Validity
            Not Before: Sep 28 16:12:19 2016 GMT
            Not After : Sep 26 16:12:19 2026 GMT
        Subject: C=AR, ST=NQ, L=Neuquen, O=UNC, OU=LabRII, CN=r1/name=EasyRSA/emailAddress=root@localhost
        Subject Public Key Info:
            Public Key Algorithm: rsaEncryption
            RSA Public Key: (2048 bit)
                Modulus (2048 bit):
                    00:a8:23:08:24:7a:a7:cd:9f:b1:39:6b:b7:a1:de:
                    17:f3:a0:b0:c7:6e:ca:87:41:c1:74:6c:22:bd:0e:
                    15:8b:4d:8a:eb:2c:79:ea:ae:bb:ac:fb:ef:b8:4e:
                    94:64:0b:ff:f0:67:8e:1d:b0:f1:c9:64:c7:db:23:
                    c8:40:fe:6f:0a:52:4c:75:bf:7d:77:aa:34:1c:a5:
                    81:f7:b6:0c:68:53:c4:0a:34:d8:04:99:81:30:b3:
                    d3:7e:1b:93:77:7d:ce:f6:db:26:c0:f3:4a:5b:31:
                    61:c9:a9:f5:52:a5:43:58:33:9f:22:d7:68:63:1b:
                    a0:ae:18:72:a6:d2:d7:7d:57:a3:6f:ea:5c:e0:9b:
                    65:d5:ef:0b:bc:b0:a3:11:2c:54:7b:c0:2b:a4:c3:
                    96:9e:f6:b6:2c:22:40:b9:b0:c9:ac:e1:fd:db:8d:
                    73:b8:61:62:65:41:0c:b9:ee:7b:b9:fc:26:f9:d7:
                    38:5b:55:d5:1c:11:07:a4:71:c6:7a:67:b7:96:35:
                    d4:b5:31:b4:d0:6c:79:f2:ff:36:c1:1f:19:26:2a:
                    8f:75:15:7f:11:2b:20:91:46:57:45:24:b9:c9:a0:
                    69:01:18:01:73:fd:95:c4:23:ef:ec:99:fe:7c:9d:
                    35:4d:77:68:4d:1b:08:dc:b0:c5:b4:48:78:ec:43:
                    08:53
                Exponent: 65537 (0x10001)
        X509v3 extensions:
            X509v3 Basic Constraints: 
                CA:FALSE
            Netscape Comment: 
                Easy-RSA Generated Certificate
            X509v3 Subject Key Identifier: 
                D7:8B:AC:93:37:24:3F:9A:14:FA:C9:9E:7C:B2:05:D5:7F:57:0F:CC
            X509v3 Authority Key Identifier: 
                keyid:9C:45:8D:4F:A5:ED:92:C1:97:72:FE:0B:99:ED:88:A8:54:88:99:AA
                DirName:/C=AR/ST=NQ/L=Neuquen/O=UNC/OU=LabRII/CN=UNC CA/name=EasyRSA/emailAddress=root@localhost
                serial:B1:55:0C:31:4F:AA:E8:7A

            X509v3 Extended Key Usage: 
                TLS Web Client Authentication
            X509v3 Key Usage: 
                Digital Signature
            X509v3 Subject Alternative Name: 
                DNS:r1
    Signature Algorithm: sha256WithRSAEncryption
        4c:84:25:9f:4f:db:d2:06:c0:8e:80:32:09:32:eb:22:7b:ff:
        76:f1:57:30:87:08:61:fe:db:68:65:41:a4:5d:aa:a2:8a:e6:
        92:4e:a9:6f:b0:ba:34:b5:30:45:b4:a9:7a:c8:75:49:9c:78:
        38:19:6c:eb:48:7d:04:33:2b:8e:e9:1d:56:f0:8e:91:97:c3:
        9b:cb:8b:d4:59:7d:77:e3:ba:09:21:3d:78:6e:94:09:f6:f5:
        f1:d9:e0:41:3a:95:a4:ed:b8:ce:0e:db:70:5a:99:ec:89:9a:
        f2:7b:83:e3:9d:93:39:14:a5:01:27:15:fd:f1:be:be:c7:39:
        9a:c8:29:56:e7:c8:23:39:e2:35:ad:77:43:42:be:f9:9a:b4:
        76:53:b2:07:0f:b8:73:e4:e0:e9:f9:90:b5:31:6a:a3:36:2f:
        dd:8f:7c:45:c4:0d:66:fe:d8:a4:06:7c:23:c1:39:3b:b3:5b:
        a1:92:16:fc:59:94:a1:79:32:b1:59:6c:68:7d:d1:e3:ad:ea:
        e2:d5:26:67:57:c2:c1:3c:dc:79:07:8d:30:9b:99:74:4a:b0:
        e6:27:6e:b7:08:d2:26:2f:90:98:30:26:0e:6c:d5:db:35:a2:
        e3:b3:04:a7:d9:9a:4a:6c:41:10:a4:ef:5c:5d:52:16:29:32:
        07:ea:d4:45
-----BEGIN CERTIFICATE-----
MIIE6DCCA9CgAwIBAgIBAjANBgkqhkiG9w0BAQsFADCBjTELMAkGA1UEBhMCQVIx
CzAJBgNVBAgTAk5RMRAwDgYDVQQHEwdOZXVxdWVuMQwwCgYDVQQKEwNVTkMxDzAN
BgNVBAsTBkxhYlJJSTEPMA0GA1UEAxMGVU5DIENBMRAwDgYDVQQpEwdFYXN5UlNB
MR0wGwYJKoZIhvcNAQkBFg5yb290QGxvY2FsaG9zdDAeFw0xNjA5MjgxNjEyMTla
Fw0yNjA5MjYxNjEyMTlaMIGJMQswCQYDVQQGEwJBUjELMAkGA1UECBMCTlExEDAO
BgNVBAcTB05ldXF1ZW4xDDAKBgNVBAoTA1VOQzEPMA0GA1UECxMGTGFiUklJMQsw
CQYDVQQDEwJyMTEQMA4GA1UEKRMHRWFzeVJTQTEdMBsGCSqGSIb3DQEJARYOcm9v
dEBsb2NhbGhvc3QwggEiMA0GCSqGSIb3DQEBAQUAA4IBDwAwggEKAoIBAQCoIwgk
eqfNn7E5a7eh3hfzoLDHbsqHQcF0bCK9DhWLTYrrLHnqrrus+++4TpRkC//wZ44d
sPHJZMfbI8hA/m8KUkx1v313qjQcpYH3tgxoU8QKNNgEmYEws9N+G5N3fc722ybA
80pbMWHJqfVSpUNYM58i12hjG6CuGHKm0td9V6Nv6lzgm2XV7wu8sKMRLFR7wCuk
w5ae9rYsIkC5sMms4f3bjXO4YWJlQQy57nu5/Cb51zhbVdUcEQekccZ6Z7eWNdS1
MbTQbHny/zbBHxkmKo91FX8RKyCRRldFJLnJoGkBGAFz/ZXEI+/smf58nTVNd2hN
GwjcsMW0SHjsQwhTAgMBAAGjggFTMIIBTzAJBgNVHRMEAjAAMC0GCWCGSAGG+EIB
DQQgFh5FYXN5LVJTQSBHZW5lcmF0ZWQgQ2VydGlmaWNhdGUwHQYDVR0OBBYEFNeL
rJM3JD+aFPrJnnyyBdV/Vw/MMIHCBgNVHSMEgbowgbeAFJxFjU+l7ZLBl3L+C5nt
iKhUiJmqoYGTpIGQMIGNMQswCQYDVQQGEwJBUjELMAkGA1UECBMCTlExEDAOBgNV
BAcTB05ldXF1ZW4xDDAKBgNVBAoTA1VOQzEPMA0GA1UECxMGTGFiUklJMQ8wDQYD
VQQDEwZVTkMgQ0ExEDAOBgNVBCkTB0Vhc3lSU0ExHTAbBgkqhkiG9w0BCQEWDnJv
b3RAbG9jYWxob3N0ggkAsVUMMU+q6HowEwYDVR0lBAwwCgYIKwYBBQUHAwIwCwYD
VR0PBAQDAgeAMA0GA1UdEQQGMASCAnIxMA0GCSqGSIb3DQEBCwUAA4IBAQBMhCWf
T9vSBsCOgDIJMusie/928Vcwhwhh/ttoZUGkXaqiiuaSTqlvsLo0tTBFtKl6yHVJ
nHg4GWzrSH0EMyuO6R1W8I6Rl8Oby4vUWX1347oJIT14bpQJ9vXx2eBBOpWk7bjO
DttwWpnsiZrye4PjnZM5FKUBJxX98b6+xzmayClW58gjOeI1rXdDQr75mrR2U7IH
D7hz5ODp+ZC1MWqjNi/dj3xFxA1m/tikBnwjwTk7s1uhkhb8WZSheTKxWWxofdHj
reri1SZnV8LBPNx5B40wm5l0SrDmJ263CNImL5CYMCYObNXbNaLjswSn2ZpKbEEQ
pO9cXVIWKTIH6tRF
-----END CERTIFICATE-----
