Certificate:
    Data:
        Version: 3 (0x2)
        Serial Number: 1 (0x1)
        Signature Algorithm: sha256WithRSAEncryption
        Issuer: C=AR, ST=NQN, L=Neuquen Capital, O=FAI, OU=FAIREDES, CN=FAI CA/name=EasyRSA/emailAddress=franco.ojeda@est.fi.uncoma.edu.ar
        Validity
            Not Before: Oct 12 21:39:46 2025 GMT
            Not After : Oct 10 21:39:46 2035 GMT
        Subject: C=AR, ST=NQN, L=Neuquen Capital, O=FAI, OU=FAIREDES, CN=El/name=EasyRSA/emailAddress=franco.ojeda@est.fi.uncoma.edu.ar
        Subject Public Key Info:
            Public Key Algorithm: rsaEncryption
            RSA Public Key: (2048 bit)
                Modulus (2048 bit):
                    00:c1:53:f3:88:2a:85:3a:2f:b5:1a:c3:cc:71:cc:
                    c7:fa:95:21:25:ac:4c:8b:74:bb:6d:65:86:1a:65:
                    be:be:15:3d:98:3c:4c:87:60:df:cc:f4:77:b0:87:
                    76:26:9b:13:aa:78:16:94:96:72:3f:d9:a7:15:a7:
                    cf:eb:28:cc:46:47:ae:a9:99:bd:ac:2c:e2:0b:49:
                    02:2d:d7:80:fd:88:a4:a9:5b:60:1d:89:73:ab:b6:
                    e5:49:4a:3e:cf:1d:70:ca:39:5b:8a:ed:cf:05:b1:
                    a0:84:a4:f4:5e:b6:60:87:27:29:29:c3:47:e2:b0:
                    20:d6:69:9b:6a:b6:b5:30:f8:60:b3:27:d1:15:a8:
                    63:34:53:15:ef:d0:f8:ce:a1:20:d7:9d:cb:18:6c:
                    e2:5d:72:25:e4:d8:35:4c:eb:1d:90:1a:3e:35:52:
                    94:18:a3:e8:3a:38:ef:c8:bc:e1:e0:0e:25:29:33:
                    19:5c:98:e5:82:d8:54:75:77:3f:70:2f:89:85:6c:
                    1c:96:65:e8:c9:19:fb:88:6d:8a:42:d2:3a:36:3c:
                    59:41:24:da:13:99:e2:bb:2f:e9:76:dc:07:3a:ad:
                    28:8c:39:72:0d:bb:45:4d:6c:59:bc:2a:64:c6:85:
                    c5:56:8e:ea:fd:9e:35:ed:33:6e:40:f4:3f:5a:36:
                    10:4f
                Exponent: 65537 (0x10001)
        X509v3 extensions:
            X509v3 Basic Constraints: 
                CA:FALSE
            Netscape Cert Type: 
                SSL Server
            Netscape Comment: 
                Easy-RSA Generated Server Certificate
            X509v3 Subject Key Identifier: 
                F0:DD:19:F3:3D:D9:E0:4B:33:97:3C:91:51:AC:3F:BC:60:5A:37:EE
            X509v3 Authority Key Identifier: 
                keyid:3A:F0:92:48:8A:E5:BB:75:7F:4A:19:B1:C9:0A:3D:81:13:E5:DE:BF
                DirName:/C=AR/ST=NQN/L=Neuquen Capital/O=FAI/OU=FAIREDES/CN=FAI CA/name=EasyRSA/emailAddress=franco.ojeda@est.fi.uncoma.edu.ar
                serial:9B:DB:9A:A4:8F:BB:D5:31

            X509v3 Extended Key Usage: 
                TLS Web Server Authentication
            X509v3 Key Usage: 
                Digital Signature, Key Encipherment
            X509v3 Subject Alternative Name: 
                DNS:El
    Signature Algorithm: sha256WithRSAEncryption
        56:ae:67:61:16:42:49:c2:6b:01:2e:ae:2a:b5:d3:95:2d:1f:
        aa:d2:d4:e7:f5:5f:b7:e9:25:30:25:32:08:26:20:61:39:f2:
        2b:16:ef:aa:20:55:08:fa:bb:b8:76:0a:21:e6:47:c6:d6:c3:
        29:17:0d:02:41:e7:0e:30:10:82:64:aa:d6:53:2e:08:65:cb:
        c9:bb:ca:6d:73:62:35:32:89:4b:02:64:3f:f3:87:64:01:d5:
        66:d1:ec:7a:5b:96:e6:80:b0:a1:0d:70:5d:a0:72:1b:86:60:
        cb:12:d3:05:06:3e:62:ea:9d:ce:cb:af:6c:2d:9f:4c:92:46:
        4e:f4:13:45:15:57:55:1a:33:1d:8f:fb:82:af:58:ab:cd:3d:
        4b:ef:52:a4:54:28:31:bf:06:71:c0:a9:f4:a8:bc:10:4a:ac:
        af:6e:43:2c:ad:1f:3b:da:fb:54:31:8e:65:a3:c7:cf:b2:f1:
        32:68:1a:87:f5:32:d7:1d:d6:80:0d:0f:72:60:28:ff:cc:5f:
        4e:07:67:a5:41:8d:e2:4d:1e:db:ed:c0:95:fa:e8:0c:1a:75:
        fe:e7:6d:72:8a:f8:ec:26:76:4f:13:1a:0f:a4:d4:87:92:31:
        3a:0c:7e:3c:06:f2:6f:3e:70:6e:fa:ba:a1:01:4a:13:22:31:
        b9:ba:a8:42
-----BEGIN CERTIFICATE-----
MIIFXDCCBESgAwIBAgIBATANBgkqhkiG9w0BAQsFADCBqzELMAkGA1UEBhMCQVIx
DDAKBgNVBAgTA05RTjEYMBYGA1UEBxMPTmV1cXVlbiBDYXBpdGFsMQwwCgYDVQQK
EwNGQUkxETAPBgNVBAsTCEZBSVJFREVTMQ8wDQYDVQQDEwZGQUkgQ0ExEDAOBgNV
BCkTB0Vhc3lSU0ExMDAuBgkqhkiG9w0BCQEWIWZyYW5jby5vamVkYUBlc3QuZmku
dW5jb21hLmVkdS5hcjAeFw0yNTEwMTIyMTM5NDZaFw0zNTEwMTAyMTM5NDZaMIGn
MQswCQYDVQQGEwJBUjEMMAoGA1UECBMDTlFOMRgwFgYDVQQHEw9OZXVxdWVuIENh
cGl0YWwxDDAKBgNVBAoTA0ZBSTERMA8GA1UECxMIRkFJUkVERVMxCzAJBgNVBAMT
AkVsMRAwDgYDVQQpEwdFYXN5UlNBMTAwLgYJKoZIhvcNAQkBFiFmcmFuY28ub2pl
ZGFAZXN0LmZpLnVuY29tYS5lZHUuYXIwggEiMA0GCSqGSIb3DQEBAQUAA4IBDwAw
ggEKAoIBAQDBU/OIKoU6L7Uaw8xxzMf6lSElrEyLdLttZYYaZb6+FT2YPEyHYN/M
9Hewh3YmmxOqeBaUlnI/2acVp8/rKMxGR66pmb2sLOILSQIt14D9iKSpW2AdiXOr
tuVJSj7PHXDKOVuK7c8FsaCEpPRetmCHJykpw0fisCDWaZtqtrUw+GCzJ9EVqGM0
UxXv0PjOoSDXncsYbOJdciXk2DVM6x2QGj41UpQYo+g6OO/IvOHgDiUpMxlcmOWC
2FR1dz9wL4mFbByWZejJGfuIbYpC0jo2PFlBJNoTmeK7L+l23Ac6rSiMOXINu0VN
bFm8KmTGhcVWjur9njXtM25A9D9aNhBPAgMBAAGjggGLMIIBhzAJBgNVHRMEAjAA
MBEGCWCGSAGG+EIBAQQEAwIGQDA0BglghkgBhvhCAQ0EJxYlRWFzeS1SU0EgR2Vu
ZXJhdGVkIFNlcnZlciBDZXJ0aWZpY2F0ZTAdBgNVHQ4EFgQU8N0Z8z3Z4EszlzyR
Uaw/vGBaN+4wgeAGA1UdIwSB2DCB1YAUOvCSSIrlu3V/ShmxyQo9gRPl3r+hgbGk
ga4wgasxCzAJBgNVBAYTAkFSMQwwCgYDVQQIEwNOUU4xGDAWBgNVBAcTD05ldXF1
ZW4gQ2FwaXRhbDEMMAoGA1UEChMDRkFJMREwDwYDVQQLEwhGQUlSRURFUzEPMA0G
A1UEAxMGRkFJIENBMRAwDgYDVQQpEwdFYXN5UlNBMTAwLgYJKoZIhvcNAQkBFiFm
cmFuY28ub2plZGFAZXN0LmZpLnVuY29tYS5lZHUuYXKCCQCb25qkj7vVMTATBgNV
HSUEDDAKBggrBgEFBQcDATALBgNVHQ8EBAMCBaAwDQYDVR0RBAYwBIICRWwwDQYJ
KoZIhvcNAQELBQADggEBAFauZ2EWQknCawEuriq105UtH6rS1Of1X7fpJTAlMggm
IGE58isW76ogVQj6u7h2CiHmR8bWwykXDQJB5w4wEIJkqtZTLghly8m7ym1zYjUy
iUsCZD/zh2QB1WbR7HpbluaAsKENcF2gchuGYMsS0wUGPmLqnc7Lr2wtn0ySRk70
E0UVV1UaMx2P+4KvWKvNPUvvUqRUKDG/BnHAqfSovBBKrK9uQyytHzva+1QxjmWj
x8+y8TJoGof1Mtcd1oAND3JgKP/MX04HZ6VBjeJNHtvtwJX66Awadf7nbXKK+Owm
dk8TGg+k1IeSMToMfjwG8m8+cG76uqEBShMiMbm6qEI=
-----END CERTIFICATE-----
