Certificate:
    Data:
        Version: 3 (0x2)
        Serial Number: 2 (0x2)
        Signature Algorithm: sha256WithRSAEncryption
        Issuer: C=AR, ST=NQN, L=Neuquen Capital, O=FAI, OU=FAIREDES, CN=FAI CA/name=EasyRSA/emailAddress=franco.ojeda@est.fi.uncoma.edu.ar
        Validity
            Not Before: Oct 12 21:40:04 2025 GMT
            Not After : Oct 10 21:40:04 2035 GMT
        Subject: C=AR, ST=NQN, L=Neuquen Capital, O=FAI, OU=FAIREDES, CN=Tu/name=EasyRSA/emailAddress=franco.ojeda@est.fi.uncoma.edu.ar
        Subject Public Key Info:
            Public Key Algorithm: rsaEncryption
            RSA Public Key: (2048 bit)
                Modulus (2048 bit):
                    00:b2:f1:ff:16:d2:a4:5e:8d:f1:8a:b6:bf:e7:15:
                    00:4d:d4:10:a8:19:a8:3a:81:8f:6f:11:92:c4:02:
                    f9:04:ee:9d:df:8c:72:f3:61:77:64:e0:1f:d9:74:
                    46:14:49:81:6c:d7:8d:c2:5e:a6:68:ab:a6:26:8a:
                    8c:2c:b0:c5:97:7c:06:c2:58:20:86:2e:c1:30:4b:
                    56:66:13:0c:1f:a4:68:78:e2:35:da:23:2e:4f:57:
                    33:1d:3b:a3:7a:df:3f:e8:c0:eb:fe:02:71:8b:3e:
                    db:f1:25:d4:09:65:84:46:b0:6f:d3:59:0d:d1:c8:
                    38:80:d0:e9:60:94:c9:9f:84:7a:84:19:19:c9:fd:
                    9f:b6:1e:0f:84:b8:61:8c:b3:c5:76:e5:ce:95:0f:
                    bf:8f:5d:2e:18:c6:7c:40:16:a8:33:d2:51:25:9e:
                    72:c8:c5:57:10:68:b2:d7:25:14:6b:d6:96:83:02:
                    91:60:31:05:71:d9:92:87:ef:bc:2a:5a:65:26:b4:
                    e4:44:81:da:17:fc:b3:8f:28:f1:bb:99:ab:d0:13:
                    d6:f4:a9:2c:7e:f2:87:16:96:7b:2b:ee:2e:94:0c:
                    92:d8:7b:91:4b:7d:1d:2c:2f:23:e4:27:3c:99:77:
                    56:4a:62:81:81:40:11:29:55:16:86:81:f2:86:4a:
                    3b:bf
                Exponent: 65537 (0x10001)
        X509v3 extensions:
            X509v3 Basic Constraints: 
                CA:FALSE
            Netscape Comment: 
                Easy-RSA Generated Certificate
            X509v3 Subject Key Identifier: 
                B8:F5:30:AA:59:27:1C:28:F6:3B:71:DF:A9:8D:B2:40:D5:E7:5E:FA
            X509v3 Authority Key Identifier: 
                keyid:3A:F0:92:48:8A:E5:BB:75:7F:4A:19:B1:C9:0A:3D:81:13:E5:DE:BF
                DirName:/C=AR/ST=NQN/L=Neuquen Capital/O=FAI/OU=FAIREDES/CN=FAI CA/name=EasyRSA/emailAddress=franco.ojeda@est.fi.uncoma.edu.ar
                serial:9B:DB:9A:A4:8F:BB:D5:31

            X509v3 Extended Key Usage: 
                TLS Web Client Authentication
            X509v3 Key Usage: 
                Digital Signature
            X509v3 Subject Alternative Name: 
                DNS:Tu
    Signature Algorithm: sha256WithRSAEncryption
        c8:5d:68:f7:c7:70:c9:13:d4:55:4f:c8:8d:4e:8a:14:90:69:
        08:ab:a9:66:76:a3:b4:b0:b1:57:cf:0d:f2:13:83:7f:1d:f0:
        b3:16:71:18:77:73:74:18:93:27:47:a9:b8:d0:40:d3:4d:11:
        80:d5:2a:5c:10:86:a1:b8:53:60:80:64:44:3e:c5:78:27:35:
        1c:53:eb:3e:10:79:2b:d0:05:f9:7a:04:c2:40:e2:3d:af:65:
        64:74:bd:54:02:60:2a:a1:00:86:23:dd:72:41:ee:9e:26:26:
        c0:46:0d:96:02:e1:2d:03:77:e9:c1:c3:11:0c:57:66:8b:78:
        44:ca:ce:fe:f2:c1:8d:24:71:f6:f9:4e:f3:f7:c7:e6:c1:08:
        21:33:2a:d3:17:c0:bd:c0:eb:cd:98:de:5d:60:65:51:6b:ce:
        59:42:f9:b7:59:36:1e:54:e0:e2:15:b3:c1:fe:bb:fa:ae:d5:
        dd:d6:7d:bd:86:26:1b:bc:fd:b5:6d:1e:44:eb:62:fb:c7:8a:
        78:19:d4:c1:8a:16:36:55:e5:11:12:5a:ec:8d:5e:e9:eb:aa:
        cd:b6:27:7d:de:74:51:1e:b5:9f:89:e0:a4:b9:1c:4b:26:61:
        31:8a:92:c3:11:6e:7c:d5:36:7c:35:9b:05:26:aa:10:52:01:
        c2:a8:71:b0
-----BEGIN CERTIFICATE-----
MIIFQjCCBCqgAwIBAgIBAjANBgkqhkiG9w0BAQsFADCBqzELMAkGA1UEBhMCQVIx
DDAKBgNVBAgTA05RTjEYMBYGA1UEBxMPTmV1cXVlbiBDYXBpdGFsMQwwCgYDVQQK
EwNGQUkxETAPBgNVBAsTCEZBSVJFREVTMQ8wDQYDVQQDEwZGQUkgQ0ExEDAOBgNV
BCkTB0Vhc3lSU0ExMDAuBgkqhkiG9w0BCQEWIWZyYW5jby5vamVkYUBlc3QuZmku
dW5jb21hLmVkdS5hcjAeFw0yNTEwMTIyMTQwMDRaFw0zNTEwMTAyMTQwMDRaMIGn
MQswCQYDVQQGEwJBUjEMMAoGA1UECBMDTlFOMRgwFgYDVQQHEw9OZXVxdWVuIENh
cGl0YWwxDDAKBgNVBAoTA0ZBSTERMA8GA1UECxMIRkFJUkVERVMxCzAJBgNVBAMT
AlR1MRAwDgYDVQQpEwdFYXN5UlNBMTAwLgYJKoZIhvcNAQkBFiFmcmFuY28ub2pl
ZGFAZXN0LmZpLnVuY29tYS5lZHUuYXIwggEiMA0GCSqGSIb3DQEBAQUAA4IBDwAw
ggEKAoIBAQCy8f8W0qRejfGKtr/nFQBN1BCoGag6gY9vEZLEAvkE7p3fjHLzYXdk
4B/ZdEYUSYFs143CXqZoq6YmiowssMWXfAbCWCCGLsEwS1ZmEwwfpGh44jXaIy5P
VzMdO6N63z/owOv+AnGLPtvxJdQJZYRGsG/TWQ3RyDiA0OlglMmfhHqEGRnJ/Z+2
Hg+EuGGMs8V25c6VD7+PXS4YxnxAFqgz0lElnnLIxVcQaLLXJRRr1paDApFgMQVx
2ZKH77wqWmUmtOREgdoX/LOPKPG7mavQE9b0qSx+8ocWlnsr7i6UDJLYe5FLfR0s
LyPkJzyZd1ZKYoGBQBEpVRaGgfKGSju/AgMBAAGjggFxMIIBbTAJBgNVHRMEAjAA
MC0GCWCGSAGG+EIBDQQgFh5FYXN5LVJTQSBHZW5lcmF0ZWQgQ2VydGlmaWNhdGUw
HQYDVR0OBBYEFLj1MKpZJxwo9jtx36mNskDV5176MIHgBgNVHSMEgdgwgdWAFDrw
kkiK5bt1f0oZsckKPYET5d6/oYGxpIGuMIGrMQswCQYDVQQGEwJBUjEMMAoGA1UE
CBMDTlFOMRgwFgYDVQQHEw9OZXVxdWVuIENhcGl0YWwxDDAKBgNVBAoTA0ZBSTER
MA8GA1UECxMIRkFJUkVERVMxDzANBgNVBAMTBkZBSSBDQTEQMA4GA1UEKRMHRWFz
eVJTQTEwMC4GCSqGSIb3DQEJARYhZnJhbmNvLm9qZWRhQGVzdC5maS51bmNvbWEu
ZWR1LmFyggkAm9uapI+71TEwEwYDVR0lBAwwCgYIKwYBBQUHAwIwCwYDVR0PBAQD
AgeAMA0GA1UdEQQGMASCAlR1MA0GCSqGSIb3DQEBCwUAA4IBAQDIXWj3x3DJE9RV
T8iNTooUkGkIq6lmdqO0sLFXzw3yE4N/HfCzFnEYd3N0GJMnR6m40EDTTRGA1Spc
EIahuFNggGREPsV4JzUcU+s+EHkr0AX5egTCQOI9r2VkdL1UAmAqoQCGI91yQe6e
JibARg2WAuEtA3fpwcMRDFdmi3hEys7+8sGNJHH2+U7z98fmwQghMyrTF8C9wOvN
mN5dYGVRa85ZQvm3WTYeVODiFbPB/rv6rtXd1n29hiYbvP21bR5E62L7x4p4GdTB
ihY2VeURElrsjV7p66rNtid93nRRHrWfieCkuRxLJmExipLDEW581TZ8NZsFJqoQ
UgHCqHGw
-----END CERTIFICATE-----
